target datalayout = "e-m:e-p270:32:32-p271:32:32-p272:64:64-i64:64-i128:128-f80:128-n8:16:32:64-S128"
target triple = "x86_64-pc-linux-gnu"

; Function Attrs: nounwind uwtable
define internal void @tf_h0(ptr noundef %0, ptr noundef %1, i32 noundef %2) #0 {
  %4 = alloca ptr, align 8
  %5 = alloca ptr, align 8
  %6 = alloca i32, align 4
  %7 = alloca [4 x i8], align 1
  store ptr %0, ptr %4, align 8, !tbaa !9
  store ptr %1, ptr %5, align 8, !tbaa !21
  store i32 %2, ptr %6, align 4, !tbaa !11
  call void @llvm.lifetime.start.p0(i64 4, ptr %7) #6
  %8 = load i32, ptr %6, align 4, !tbaa !11
  %9 = icmp eq i32 %8, 4
  br i1 %9, label %10, label %71

10:                                               ; preds = %3
  %11 = load ptr, ptr %5, align 8, !tbaa !21
  %12 = getelementptr inbounds i32, ptr %11, i64 3
  %13 = load i32, ptr %12, align 4, !tbaa !11
  %14 = getelementptr inbounds [4 x i8], ptr %7, i64 0, i64 0
  store i32 %13, ptr %14, align 1, !tbaa !15
  %15 = load ptr, ptr %4, align 8, !tbaa !9
  %16 = getelementptr inbounds i8, ptr %15, i64 0
  %17 = load i8, ptr %16, align 1, !tbaa !15
  %18 = zext i8 %17 to i64
  %19 = getelementptr inbounds nuw [256 x i8], ptr @q1, i64 0, i64 %18
  %20 = load i8, ptr %19, align 1, !tbaa !15
  %21 = zext i8 %20 to i32
  %22 = getelementptr inbounds [4 x i8], ptr %7, i64 0, i64 0
  %23 = load i8, ptr %22, align 1, !tbaa !15
  %24 = zext i8 %23 to i32
  %25 = xor i32 %21, %24
  %26 = trunc i32 %25 to i8
  %27 = load ptr, ptr %4, align 8, !tbaa !9
  %28 = getelementptr inbounds i8, ptr %27, i64 0
  store i8 %26, ptr %28, align 1, !tbaa !15
  %29 = load ptr, ptr %4, align 8, !tbaa !9
  %30 = getelementptr inbounds i8, ptr %29, i64 1
  %31 = load i8, ptr %30, align 1, !tbaa !15
  %32 = zext i8 %31 to i64
  %33 = getelementptr inbounds nuw [256 x i8], ptr @q0, i64 0, i64 %32
  %34 = load i8, ptr %33, align 1, !tbaa !15
  %35 = zext i8 %34 to i32
  %36 = getelementptr inbounds [4 x i8], ptr %7, i64 0, i64 1
  %37 = load i8, ptr %36, align 1, !tbaa !15
  %38 = zext i8 %37 to i32
  %39 = xor i32 %35, %38
  %40 = trunc i32 %39 to i8
  %41 = load ptr, ptr %4, align 8, !tbaa !9
  %42 = getelementptr inbounds i8, ptr %41, i64 1
  store i8 %40, ptr %42, align 1, !tbaa !15
  %43 = load ptr, ptr %4, align 8, !tbaa !9
  %44 = getelementptr inbounds i8, ptr %43, i64 2
  %45 = load i8, ptr %44, align 1, !tbaa !15
  %46 = zext i8 %45 to i64
  %47 = getelementptr inbounds nuw [256 x i8], ptr @q0, i64 0, i64 %46
  %48 = load i8, ptr %47, align 1, !tbaa !15
  %49 = zext i8 %48 to i32
  %50 = getelementptr inbounds [4 x i8], ptr %7, i64 0, i64 2
  %51 = load i8, ptr %50, align 1, !tbaa !15
  %52 = zext i8 %51 to i32
  %53 = xor i32 %49, %52
  %54 = trunc i32 %53 to i8
  %55 = load ptr, ptr %4, align 8, !tbaa !9
  %56 = getelementptr inbounds i8, ptr %55, i64 2
  store i8 %54, ptr %56, align 1, !tbaa !15
  %57 = load ptr, ptr %4, align 8, !tbaa !9
  %58 = getelementptr inbounds i8, ptr %57, i64 3
  %59 = load i8, ptr %58, align 1, !tbaa !15
  %60 = zext i8 %59 to i64
  %61 = getelementptr inbounds nuw [256 x i8], ptr @q1, i64 0, i64 %60
  %62 = load i8, ptr %61, align 1, !tbaa !15
  %63 = zext i8 %62 to i32
  %64 = getelementptr inbounds [4 x i8], ptr %7, i64 0, i64 3
  %65 = load i8, ptr %64, align 1, !tbaa !15
  %66 = zext i8 %65 to i32
  %67 = xor i32 %63, %66
  %68 = trunc i32 %67 to i8
  %69 = load ptr, ptr %4, align 8, !tbaa !9
  %70 = getelementptr inbounds i8, ptr %69, i64 3
  store i8 %68, ptr %70, align 1, !tbaa !15
  br label %71

71:                                               ; preds = %10, %3
  %72 = load i32, ptr %6, align 4, !tbaa !11
  %73 = icmp sge i32 %72, 3
  br i1 %73, label %74, label %135

74:                                               ; preds = %71
  %75 = load ptr, ptr %5, align 8, !tbaa !21
  %76 = getelementptr inbounds i32, ptr %75, i64 2
  %77 = load i32, ptr %76, align 4, !tbaa !11
  %78 = getelementptr inbounds [4 x i8], ptr %7, i64 0, i64 0
  store i32 %77, ptr %78, align 1, !tbaa !15
  %79 = load ptr, ptr %4, align 8, !tbaa !9
  %80 = getelementptr inbounds i8, ptr %79, i64 0
  %81 = load i8, ptr %80, align 1, !tbaa !15
  %82 = zext i8 %81 to i64
  %83 = getelementptr inbounds nuw [256 x i8], ptr @q1, i64 0, i64 %82
  %84 = load i8, ptr %83, align 1, !tbaa !15
  %85 = zext i8 %84 to i32
  %86 = getelementptr inbounds [4 x i8], ptr %7, i64 0, i64 0
  %87 = load i8, ptr %86, align 1, !tbaa !15
  %88 = zext i8 %87 to i32
  %89 = xor i32 %85, %88
  %90 = trunc i32 %89 to i8
  %91 = load ptr, ptr %4, align 8, !tbaa !9
  %92 = getelementptr inbounds i8, ptr %91, i64 0
  store i8 %90, ptr %92, align 1, !tbaa !15
  %93 = load ptr, ptr %4, align 8, !tbaa !9
  %94 = getelementptr inbounds i8, ptr %93, i64 1
  %95 = load i8, ptr %94, align 1, !tbaa !15
  %96 = zext i8 %95 to i64
  %97 = getelementptr inbounds nuw [256 x i8], ptr @q1, i64 0, i64 %96
  %98 = load i8, ptr %97, align 1, !tbaa !15
  %99 = zext i8 %98 to i32
  %100 = getelementptr inbounds [4 x i8], ptr %7, i64 0, i64 1
  %101 = load i8, ptr %100, align 1, !tbaa !15
  %102 = zext i8 %101 to i32
  %103 = xor i32 %99, %102
  %104 = trunc i32 %103 to i8
  %105 = load ptr, ptr %4, align 8, !tbaa !9
  %106 = getelementptr inbounds i8, ptr %105, i64 1
  store i8 %104, ptr %106, align 1, !tbaa !15
  %107 = load ptr, ptr %4, align 8, !tbaa !9
  %108 = getelementptr inbounds i8, ptr %107, i64 2
  %109 = load i8, ptr %108, align 1, !tbaa !15
  %110 = zext i8 %109 to i64
  %111 = getelementptr inbounds nuw [256 x i8], ptr @q0, i64 0, i64 %110
  %112 = load i8, ptr %111, align 1, !tbaa !15
  %113 = zext i8 %112 to i32
  %114 = getelementptr inbounds [4 x i8], ptr %7, i64 0, i64 2
  %115 = load i8, ptr %114, align 1, !tbaa !15
  %116 = zext i8 %115 to i32
  %117 = xor i32 %113, %116
  %118 = trunc i32 %117 to i8
  %119 = load ptr, ptr %4, align 8, !tbaa !9
  %120 = getelementptr inbounds i8, ptr %119, i64 2
  store i8 %118, ptr %120, align 1, !tbaa !15
  %121 = load ptr, ptr %4, align 8, !tbaa !9
  %122 = getelementptr inbounds i8, ptr %121, i64 3
  %123 = load i8, ptr %122, align 1, !tbaa !15
  %124 = zext i8 %123 to i64
  %125 = getelementptr inbounds nuw [256 x i8], ptr @q0, i64 0, i64 %124
  %126 = load i8, ptr %125, align 1, !tbaa !15
  %127 = zext i8 %126 to i32
  %128 = getelementptr inbounds [4 x i8], ptr %7, i64 0, i64 3
  %129 = load i8, ptr %128, align 1, !tbaa !15
  %130 = zext i8 %129 to i32
  %131 = xor i32 %127, %130
  %132 = trunc i32 %131 to i8
  %133 = load ptr, ptr %4, align 8, !tbaa !9
  %134 = getelementptr inbounds i8, ptr %133, i64 3
  store i8 %132, ptr %134, align 1, !tbaa !15
  br label %135

135:                                              ; preds = %74, %71
  %136 = load ptr, ptr %5, align 8, !tbaa !21
  %137 = getelementptr inbounds i32, ptr %136, i64 1
  %138 = load i32, ptr %137, align 4, !tbaa !11
  %139 = getelementptr inbounds [4 x i8], ptr %7, i64 0, i64 0
  store i32 %138, ptr %139, align 1, !tbaa !15
  %140 = load ptr, ptr %4, align 8, !tbaa !9
  %141 = getelementptr inbounds i8, ptr %140, i64 0
  %142 = load i8, ptr %141, align 1, !tbaa !15
  %143 = zext i8 %142 to i64
  %144 = getelementptr inbounds nuw [256 x i8], ptr @q0, i64 0, i64 %143
  %145 = load i8, ptr %144, align 1, !tbaa !15
  %146 = zext i8 %145 to i32
  %147 = getelementptr inbounds [4 x i8], ptr %7, i64 0, i64 0
  %148 = load i8, ptr %147, align 1, !tbaa !15
  %149 = zext i8 %148 to i32
  %150 = xor i32 %146, %149
  %151 = sext i32 %150 to i64
  %152 = getelementptr inbounds [256 x i8], ptr @q0, i64 0, i64 %151
  %153 = load i8, ptr %152, align 1, !tbaa !15
  %154 = zext i8 %153 to i32
  %155 = load ptr, ptr %5, align 8, !tbaa !21
  %156 = getelementptr inbounds i32, ptr %155, i64 0
  %157 = load i32, ptr %156, align 4, !tbaa !11
  %158 = and i32 %157, 255
  %159 = xor i32 %154, %158
  %160 = zext i32 %159 to i64
  %161 = getelementptr inbounds nuw [256 x i8], ptr @q1, i64 0, i64 %160
  %162 = load i8, ptr %161, align 1, !tbaa !15
  %163 = load ptr, ptr %4, align 8, !tbaa !9
  %164 = getelementptr inbounds i8, ptr %163, i64 0
  store i8 %162, ptr %164, align 1, !tbaa !15
  %165 = load ptr, ptr %4, align 8, !tbaa !9
  %166 = getelementptr inbounds i8, ptr %165, i64 1
  %167 = load i8, ptr %166, align 1, !tbaa !15
  %168 = zext i8 %167 to i64
  %169 = getelementptr inbounds nuw [256 x i8], ptr @q1, i64 0, i64 %168
  %170 = load i8, ptr %169, align 1, !tbaa !15
  %171 = zext i8 %170 to i32
  %172 = getelementptr inbounds [4 x i8], ptr %7, i64 0, i64 1
  %173 = load i8, ptr %172, align 1, !tbaa !15
  %174 = zext i8 %173 to i32
  %175 = xor i32 %171, %174
  %176 = sext i32 %175 to i64
  %177 = getelementptr inbounds [256 x i8], ptr @q0, i64 0, i64 %176
  %178 = load i8, ptr %177, align 1, !tbaa !15
  %179 = zext i8 %178 to i32
  %180 = load ptr, ptr %5, align 8, !tbaa !21
  %181 = getelementptr inbounds i32, ptr %180, i64 0
  %182 = load i32, ptr %181, align 4, !tbaa !11
  %183 = lshr i32 %182, 8
  %184 = and i32 %183, 255
  %185 = xor i32 %179, %184
  %186 = zext i32 %185 to i64
  %187 = getelementptr inbounds nuw [256 x i8], ptr @q0, i64 0, i64 %186
  %188 = load i8, ptr %187, align 1, !tbaa !15
  %189 = load ptr, ptr %4, align 8, !tbaa !9
  %190 = getelementptr inbounds i8, ptr %189, i64 1
  store i8 %188, ptr %190, align 1, !tbaa !15
  %191 = load ptr, ptr %4, align 8, !tbaa !9
  %192 = getelementptr inbounds i8, ptr %191, i64 2
  %193 = load i8, ptr %192, align 1, !tbaa !15
  %194 = zext i8 %193 to i64
  %195 = getelementptr inbounds nuw [256 x i8], ptr @q0, i64 0, i64 %194
  %196 = load i8, ptr %195, align 1, !tbaa !15
  %197 = zext i8 %196 to i32
  %198 = getelementptr inbounds [4 x i8], ptr %7, i64 0, i64 2
  %199 = load i8, ptr %198, align 1, !tbaa !15
  %200 = zext i8 %199 to i32
  %201 = xor i32 %197, %200
  %202 = sext i32 %201 to i64
  %203 = getelementptr inbounds [256 x i8], ptr @q1, i64 0, i64 %202
  %204 = load i8, ptr %203, align 1, !tbaa !15
  %205 = zext i8 %204 to i32
  %206 = load ptr, ptr %5, align 8, !tbaa !21
  %207 = getelementptr inbounds i32, ptr %206, i64 0
  %208 = load i32, ptr %207, align 4, !tbaa !11
  %209 = lshr i32 %208, 16
  %210 = and i32 %209, 255
  %211 = xor i32 %205, %210
  %212 = zext i32 %211 to i64
  %213 = getelementptr inbounds nuw [256 x i8], ptr @q1, i64 0, i64 %212
  %214 = load i8, ptr %213, align 1, !tbaa !15
  %215 = load ptr, ptr %4, align 8, !tbaa !9
  %216 = getelementptr inbounds i8, ptr %215, i64 2
  store i8 %214, ptr %216, align 1, !tbaa !15
  %217 = load ptr, ptr %4, align 8, !tbaa !9
  %218 = getelementptr inbounds i8, ptr %217, i64 3
  %219 = load i8, ptr %218, align 1, !tbaa !15
  %220 = zext i8 %219 to i64
  %221 = getelementptr inbounds nuw [256 x i8], ptr @q1, i64 0, i64 %220
  %222 = load i8, ptr %221, align 1, !tbaa !15
  %223 = zext i8 %222 to i32
  %224 = getelementptr inbounds [4 x i8], ptr %7, i64 0, i64 3
  %225 = load i8, ptr %224, align 1, !tbaa !15
  %226 = zext i8 %225 to i32
  %227 = xor i32 %223, %226
  %228 = sext i32 %227 to i64
  %229 = getelementptr inbounds [256 x i8], ptr @q1, i64 0, i64 %228
  %230 = load i8, ptr %229, align 1, !tbaa !15
  %231 = zext i8 %230 to i32
  %232 = load ptr, ptr %5, align 8, !tbaa !21
  %233 = getelementptr inbounds i32, ptr %232, i64 0
  %234 = load i32, ptr %233, align 4, !tbaa !11
  %235 = lshr i32 %234, 24
  %236 = xor i32 %231, %235
  %237 = zext i32 %236 to i64
  %238 = getelementptr inbounds nuw [256 x i8], ptr @q0, i64 0, i64 %237
  %239 = load i8, ptr %238, align 1, !tbaa !15
  %240 = load ptr, ptr %4, align 8, !tbaa !9
  %241 = getelementptr inbounds i8, ptr %240, i64 3
  store i8 %239, ptr %241, align 1, !tbaa !15
  call void @llvm.lifetime.end.p0(i64 4, ptr %7) #6
  ret void
}