; Function Attrs: mustprogress nofree norecurse nosync nounwind willreturn memory(argmem: readwrite) uwtable
define internal fastcc void @tf_h0(ptr noundef nonnull captures(none) %0, ptr noundef readonly captures(none) %1, i32 noundef %2) unnamed_addr #6 {
  %4 = icmp eq i32 %2, 4
  br i1 %4, label %.thread, label %34

.thread:                                          ; preds = %3
  %5 = getelementptr inbounds nuw i8, ptr %1, i64 12
  %6 = load i32, ptr %5, align 4, !tbaa !10
  %.sroa.8.0.extract.shift = lshr i32 %6, 8
  %.sroa.11.0.extract.shift = lshr i32 %6, 16
  %.sroa.14.0.extract.shift = lshr i32 %6, 24
  %7 = load i8, ptr %0, align 1, !tbaa !9
  %8 = zext i8 %7 to i64
  %9 = getelementptr inbounds nuw [256 x i8], ptr @q1, i64 0, i64 %8
  %10 = load i8, ptr %9, align 1, !tbaa !9
  %11 = trunc i32 %6 to i8
  %12 = xor i8 %10, %11
  store i8 %12, ptr %0, align 1, !tbaa !9
  %13 = getelementptr inbounds nuw i8, ptr %0, i64 1
  %14 = load i8, ptr %13, align 1, !tbaa !9
  %15 = zext i8 %14 to i64
  %16 = getelementptr inbounds nuw [256 x i8], ptr @q0, i64 0, i64 %15
  %17 = load i8, ptr %16, align 1, !tbaa !9
  %18 = trunc i32 %.sroa.8.0.extract.shift to i8
  %19 = xor i8 %17, %18
  store i8 %19, ptr %13, align 1, !tbaa !9
  %20 = getelementptr inbounds nuw i8, ptr %0, i64 2
  %21 = load i8, ptr %20, align 1, !tbaa !9
  %22 = zext i8 %21 to i64
  %23 = getelementptr inbounds nuw [256 x i8], ptr @q0, i64 0, i64 %22
  %24 = load i8, ptr %23, align 1, !tbaa !9
  %25 = trunc i32 %.sroa.11.0.extract.shift to i8
  %26 = xor i8 %24, %25
  store i8 %26, ptr %20, align 1, !tbaa !9
  %27 = getelementptr inbounds nuw i8, ptr %0, i64 3
  %28 = load i8, ptr %27, align 1, !tbaa !9
  %29 = zext i8 %28 to i64
  %30 = getelementptr inbounds nuw [256 x i8], ptr @q1, i64 0, i64 %29
  %31 = load i8, ptr %30, align 1, !tbaa !9
  %32 = trunc nuw i32 %.sroa.14.0.extract.shift to i8
  %33 = xor i8 %31, %32
  store i8 %33, ptr %27, align 1, !tbaa !9
  br label %._crit_edge

34:                                               ; preds = %3
  %35 = icmp sgt i32 %2, 2
  %.pre59 = load i8, ptr %0, align 1, !tbaa !9
  %.phi.trans.insert = getelementptr inbounds nuw i8, ptr %0, i64 1
  %.pre54 = load i8, ptr %.phi.trans.insert, align 1, !tbaa !9
  %.phi.trans.insert55 = getelementptr inbounds nuw i8, ptr %0, i64 2
  %.pre56 = load i8, ptr %.phi.trans.insert55, align 1, !tbaa !9
  %.phi.trans.insert57 = getelementptr inbounds nuw i8, ptr %0, i64 3
  %.pre58 = load i8, ptr %.phi.trans.insert57, align 1, !tbaa !9
  br i1 %35, label %._crit_edge, label %._crit_edge60

._crit_edge:                                      ; preds = %34, %.thread
  %36 = phi i8 [ %33, %.thread ], [ %.pre58, %34 ]
  %37 = phi i8 [ %26, %.thread ], [ %.pre56, %34 ]
  %38 = phi i8 [ %19, %.thread ], [ %.pre54, %34 ]
  %39 = phi i8 [ %12, %.thread ], [ %.pre59, %34 ]
  %40 = getelementptr inbounds nuw i8, ptr %1, i64 8
  %41 = load i32, ptr %40, align 4, !tbaa !10
  %.sroa.8.0.extract.shift5 = lshr i32 %41, 8
  %.sroa.11.0.extract.shift11 = lshr i32 %41, 16
  %.sroa.14.0.extract.shift17 = lshr i32 %41, 24
  %42 = zext i8 %39 to i64
  %43 = getelementptr inbounds nuw [256 x i8], ptr @q1, i64 0, i64 %42
  %44 = load i8, ptr %43, align 1, !tbaa !9
  %45 = trunc i32 %41 to i8
  %46 = xor i8 %44, %45
  store i8 %46, ptr %0, align 1, !tbaa !9
  %47 = getelementptr inbounds nuw i8, ptr %0, i64 1
  %48 = zext i8 %38 to i64
  %49 = getelementptr inbounds nuw [256 x i8], ptr @q1, i64 0, i64 %48
  %50 = load i8, ptr %49, align 1, !tbaa !9
  %51 = trunc i32 %.sroa.8.0.extract.shift5 to i8
  %52 = xor i8 %50, %51
  store i8 %52, ptr %47, align 1, !tbaa !9
  %53 = getelementptr inbounds nuw i8, ptr %0, i64 2
  %54 = zext i8 %37 to i64
  %55 = getelementptr inbounds nuw [256 x i8], ptr @q0, i64 0, i64 %54
  %56 = load i8, ptr %55, align 1, !tbaa !9
  %57 = trunc i32 %.sroa.11.0.extract.shift11 to i8
  %58 = xor i8 %56, %57
  store i8 %58, ptr %53, align 1, !tbaa !9
  %59 = getelementptr inbounds nuw i8, ptr %0, i64 3
  %60 = zext i8 %36 to i64
  %61 = getelementptr inbounds nuw [256 x i8], ptr @q0, i64 0, i64 %60
  %62 = load i8, ptr %61, align 1, !tbaa !9
  %63 = trunc nuw i32 %.sroa.14.0.extract.shift17 to i8
  %64 = xor i8 %62, %63
  store i8 %64, ptr %59, align 1, !tbaa !9
  br label %._crit_edge60

._crit_edge60:                                    ; preds = %34, %._crit_edge
  %65 = phi i8 [ %64, %._crit_edge ], [ %.pre58, %34 ]
  %66 = phi i8 [ %58, %._crit_edge ], [ %.pre56, %34 ]
  %67 = phi i8 [ %52, %._crit_edge ], [ %.pre54, %34 ]
  %68 = phi i8 [ %46, %._crit_edge ], [ %.pre59, %34 ]
  %69 = getelementptr inbounds nuw i8, ptr %1, i64 4
  %70 = load i32, ptr %69, align 4, !tbaa !10
  %.sroa.8.0.extract.shift7 = lshr i32 %70, 8
  %.sroa.11.0.extract.shift13 = lshr i32 %70, 16
  %.sroa.14.0.extract.shift19 = lshr i32 %70, 24
  %71 = zext i8 %68 to i64
  %72 = getelementptr inbounds nuw [256 x i8], ptr @q0, i64 0, i64 %71
  %73 = load i8, ptr %72, align 1, !tbaa !9
  %74 = zext i8 %73 to i32
  %75 = and i32 %70, 255
  %76 = xor i32 %75, %74
  %77 = zext nneg i32 %76 to i64
  %78 = getelementptr inbounds nuw [256 x i8], ptr @q0, i64 0, i64 %77
  %79 = load i8, ptr %78, align 1, !tbaa !9
  %80 = zext i8 %79 to i32
  %81 = load i32, ptr %1, align 4, !tbaa !10
  %82 = and i32 %81, 255
  %83 = xor i32 %82, %80
  %84 = zext nneg i32 %83 to i64
  %85 = getelementptr inbounds nuw [256 x i8], ptr @q1, i64 0, i64 %84
  %86 = load i8, ptr %85, align 1, !tbaa !9
  store i8 %86, ptr %0, align 1, !tbaa !9
  %87 = getelementptr inbounds nuw i8, ptr %0, i64 1
  %88 = zext i8 %67 to i64
  %89 = getelementptr inbounds nuw [256 x i8], ptr @q1, i64 0, i64 %88
  %90 = load i8, ptr %89, align 1, !tbaa !9
  %91 = zext i8 %90 to i32
  %92 = and i32 %.sroa.8.0.extract.shift7, 255
  %93 = xor i32 %92, %91
  %94 = zext nneg i32 %93 to i64
  %95 = getelementptr inbounds nuw [256 x i8], ptr @q0, i64 0, i64 %94
  %96 = load i8, ptr %95, align 1, !tbaa !9
  %97 = zext i8 %96 to i32
  %98 = load i32, ptr %1, align 4, !tbaa !10
  %99 = lshr i32 %98, 8
  %100 = and i32 %99, 255
  %101 = xor i32 %100, %97
  %102 = zext nneg i32 %101 to i64
  %103 = getelementptr inbounds nuw [256 x i8], ptr @q0, i64 0, i64 %102
  %104 = load i8, ptr %103, align 1, !tbaa !9
  store i8 %104, ptr %87, align 1, !tbaa !9
  %105 = getelementptr inbounds nuw i8, ptr %0, i64 2
  %106 = zext i8 %66 to i64
  %107 = getelementptr inbounds nuw [256 x i8], ptr @q0, i64 0, i64 %106
  %108 = load i8, ptr %107, align 1, !tbaa !9
  %109 = zext i8 %108 to i32
  %110 = and i32 %.sroa.11.0.extract.shift13, 255
  %111 = xor i32 %110, %109
  %112 = zext nneg i32 %111 to i64
  %113 = getelementptr inbounds nuw [256 x i8], ptr @q1, i64 0, i64 %112
  %114 = load i8, ptr %113, align 1, !tbaa !9
  %115 = zext i8 %114 to i32
  %116 = load i32, ptr %1, align 4, !tbaa !10
  %117 = lshr i32 %116, 16
  %118 = and i32 %117, 255
  %119 = xor i32 %118, %115
  %120 = zext nneg i32 %119 to i64
  %121 = getelementptr inbounds nuw [256 x i8], ptr @q1, i64 0, i64 %120
  %122 = load i8, ptr %121, align 1, !tbaa !9
  store i8 %122, ptr %105, align 1, !tbaa !9
  %123 = getelementptr inbounds nuw i8, ptr %0, i64 3
  %124 = zext i8 %65 to i64
  %125 = getelementptr inbounds nuw [256 x i8], ptr @q1, i64 0, i64 %124
  %126 = load i8, ptr %125, align 1, !tbaa !9
  %127 = zext i8 %126 to i32
  %128 = xor i32 %.sroa.14.0.extract.shift19, %127
  %129 = zext nneg i32 %128 to i64
  %130 = getelementptr inbounds nuw [256 x i8], ptr @q1, i64 0, i64 %129
  %131 = load i8, ptr %130, align 1, !tbaa !9
  %132 = zext i8 %131 to i32
  %133 = load i32, ptr %1, align 4, !tbaa !10
  %134 = lshr i32 %133, 24
  %135 = xor i32 %134, %132
  %136 = zext nneg i32 %135 to i64
  %137 = getelementptr inbounds nuw [256 x i8], ptr @q0, i64 0, i64 %136
  %138 = load i8, ptr %137, align 1, !tbaa !9
  store i8 %138, ptr %123, align 1, !tbaa !9
  ret void
}